target datalayout = "e-m:e-p270:32:32-p271:32:32-p272:64:64-i64:64-i128:128-f80:128-n8:16:32:64-S128"
target triple = "x86_64-pc-linux-gnu"

%struct.sparse_array_st = type { i32, i64, i64, ptr }

; Function Attrs: nounwind uwtable
define i64 @ossl_sa_num(ptr noundef %0) #0 {
  %2 = alloca ptr, align 8
  store ptr %0, ptr %2, align 8, !tbaa !3
  %3 = load ptr, ptr %2, align 8, !tbaa !3
  %4 = icmp eq ptr %3, null
  br i1 %4, label %5, label %6

5:                                                ; preds = %1
  br label %10

6:                                                ; preds = %1
  %7 = load ptr, ptr %2, align 8, !tbaa !3
  %8 = getelementptr inbounds nuw %struct.sparse_array_st, ptr %7, i32 0, i32 2
  %9 = load i64, ptr %8, align 8, !tbaa !20
  br label %10

10:                                               ; preds = %6, %5
  %11 = phi i64 [ 0, %5 ], [ %9, %6 ]
  ret i64 %11
}